target datalayout = "e-m:e-p270:32:32-p271:32:32-p272:64:64-i64:64-i128:128-f80:128-n8:16:32:64-S128"
target triple = "x86_64-pc-linux-gnu"

%struct.X509_name_st = type { ptr, i32, ptr, ptr, i32 }
%struct.buf_mem_st = type { i64, ptr, i64, i64 }

@X509_NAME_it.local_it = internal constant { i8, [7 x i8], i64, ptr, i64, ptr, i64, ptr } { i8 4, [7 x i8] zeroinitializer, i64 16, ptr null, i64 0, ptr @x509_name_ff, i64 0, ptr @.str.1 }, align 8

; Function Attrs: nounwind uwtable
define ptr @X509_NAME_it() #0 {
  ret ptr @X509_NAME_it.local_it
}

; Function Attrs: nounwind uwtable
define i32 @i2d_X509_NAME(ptr noundef %0, ptr noundef %1) #0 {
  %3 = alloca ptr, align 8
  %4 = alloca ptr, align 8
  store ptr %0, ptr %3, align 8, !tbaa !16
  store ptr %1, ptr %4, align 8, !tbaa !8
  %5 = load ptr, ptr %3, align 8, !tbaa !16
  %6 = load ptr, ptr %4, align 8, !tbaa !8
  %7 = call ptr @X509_NAME_it()
  %8 = call i32 @ASN1_item_i2d(ptr noundef %5, ptr noundef %6, ptr noundef %7)
  ret i32 %8
}

; Function Attrs: nounwind uwtable
define i32 @X509_NAME_get0_der(ptr noundef %0, ptr noundef %1, ptr noundef %2) #0 {
  %4 = alloca i32, align 4
  %5 = alloca ptr, align 8
  %6 = alloca ptr, align 8
  %7 = alloca ptr, align 8
  store ptr %0, ptr %5, align 8, !tbaa !16
  store ptr %1, ptr %6, align 8, !tbaa !8
  store ptr %2, ptr %7, align 8, !tbaa !25
  %8 = load ptr, ptr %5, align 8, !tbaa !16
  %9 = call i32 @i2d_X509_NAME(ptr noundef %8, ptr noundef null)
  %10 = icmp sle i32 %9, 0
  br i1 %10, label %11, label %12

11:                                               ; preds = %3
  store i32 0, ptr %4, align 4
  br label %33

12:                                               ; preds = %3
  %13 = load ptr, ptr %6, align 8, !tbaa !8
  %14 = icmp ne ptr %13, null
  br i1 %14, label %15, label %22

15:                                               ; preds = %12
  %16 = load ptr, ptr %5, align 8, !tbaa !16
  %17 = getelementptr inbounds nuw %struct.X509_name_st, ptr %16, i32 0, i32 2
  %18 = load ptr, ptr %17, align 8, !tbaa !27
  %19 = getelementptr inbounds nuw %struct.buf_mem_st, ptr %18, i32 0, i32 1
  %20 = load ptr, ptr %19, align 8, !tbaa !31
  %21 = load ptr, ptr %6, align 8, !tbaa !8
  store ptr %20, ptr %21, align 8, !tbaa !22
  br label %22

22:                                               ; preds = %15, %12
  %23 = load ptr, ptr %7, align 8, !tbaa !25
  %24 = icmp ne ptr %23, null
  br i1 %24, label %25, label %32

25:                                               ; preds = %22
  %26 = load ptr, ptr %5, align 8, !tbaa !16
  %27 = getelementptr inbounds nuw %struct.X509_name_st, ptr %26, i32 0, i32 2
  %28 = load ptr, ptr %27, align 8, !tbaa !27
  %29 = getelementptr inbounds nuw %struct.buf_mem_st, ptr %28, i32 0, i32 0
  %30 = load i64, ptr %29, align 8, !tbaa !33
  %31 = load ptr, ptr %7, align 8, !tbaa !25
  store i64 %30, ptr %31, align 8, !tbaa !10
  br label %32

32:                                               ; preds = %25, %22
  store i32 1, ptr %4, align 4
  br label %33

33:                                               ; preds = %32, %11
  %34 = load i32, ptr %4, align 4
  ret i32 %34
}