; Function Attrs: nounwind uwtable
define range(i32 0, 2) i32 @X509_NAME_get0_der(ptr noundef %0, ptr noundef writeonly captures(address_is_null) %1, ptr noundef writeonly captures(address_is_null) %2) local_unnamed_addr #1 {
  %4 = tail call i32 @ASN1_item_i2d(ptr noundef %0, ptr noundef null, ptr noundef nonnull @X509_NAME_it.local_it) #6
  %5 = icmp slt i32 %4, 1
  br i1 %5, label %17, label %6

6:                                                ; preds = %3
  %.not = icmp eq ptr %1, null
  br i1 %.not, label %12, label %7

7:                                                ; preds = %6
  %8 = getelementptr inbounds nuw i8, ptr %0, i64 16
  %9 = load ptr, ptr %8, align 8, !tbaa !9
  %10 = getelementptr inbounds nuw i8, ptr %9, i64 8
  %11 = load ptr, ptr %10, align 8, !tbaa !15
  store ptr %11, ptr %1, align 8, !tbaa !18
  br label %12

12:                                               ; preds = %7, %6
  %.not9 = icmp eq ptr %2, null
  br i1 %.not9, label %17, label %13

13:                                               ; preds = %12
  %14 = getelementptr inbounds nuw i8, ptr %0, i64 16
  %15 = load ptr, ptr %14, align 8, !tbaa !9
  %16 = load i64, ptr %15, align 8, !tbaa !19
  store i64 %16, ptr %2, align 8, !tbaa !20
  br label %17

17:                                               ; preds = %12, %13, %3
  %.0 = phi i32 [ 0, %3 ], [ 1, %13 ], [ 1, %12 ]
  ret i32 %.0
}